; Function Attrs: nounwind uwtable
define void @avio_wb32(ptr noundef captures(none) %0, i32 noundef %1) local_unnamed_addr #3 {
  %3 = lshr i32 %1, 24
  %4 = trunc nuw i32 %3 to i8
  %5 = getelementptr inbounds nuw i8, ptr %0, i64 24
  %6 = load ptr, ptr %5, align 8, !tbaa !16
  %7 = getelementptr inbounds nuw i8, ptr %6, i64 1
  store ptr %7, ptr %5, align 8, !tbaa !16
  store i8 %4, ptr %6, align 1, !tbaa !33
  %8 = load ptr, ptr %5, align 8, !tbaa !16
  %9 = getelementptr inbounds nuw i8, ptr %0, i64 32
  %10 = load ptr, ptr %9, align 8, !tbaa !19
  %.not.i = icmp ult ptr %8, %10
  br i1 %.not.i, label %avio_w8.exit, label %11

11:                                               ; preds = %2
  tail call fastcc void @flush_buffer(ptr noundef nonnull %0)
  %.pre = load ptr, ptr %5, align 8, !tbaa !16
  br label %avio_w8.exit

avio_w8.exit:                                     ; preds = %2, %11
  %12 = phi ptr [ %8, %2 ], [ %.pre, %11 ]
  %13 = lshr i32 %1, 16
  %14 = trunc i32 %13 to i8
  %15 = getelementptr inbounds nuw i8, ptr %12, i64 1
  store ptr %15, ptr %5, align 8, !tbaa !16
  store i8 %14, ptr %12, align 1, !tbaa !33
  %16 = load ptr, ptr %5, align 8, !tbaa !16
  %17 = load ptr, ptr %9, align 8, !tbaa !19
  %.not.i7 = icmp ult ptr %16, %17
  br i1 %.not.i7, label %avio_w8.exit8, label %18

18:                                               ; preds = %avio_w8.exit
  tail call fastcc void @flush_buffer(ptr noundef nonnull %0)
  %.pre13 = load ptr, ptr %5, align 8, !tbaa !16
  br label %avio_w8.exit8

avio_w8.exit8:                                    ; preds = %avio_w8.exit, %18
  %19 = phi ptr [ %16, %avio_w8.exit ], [ %.pre13, %18 ]
  %20 = lshr i32 %1, 8
  %21 = trunc i32 %20 to i8
  %22 = getelementptr inbounds nuw i8, ptr %19, i64 1
  store ptr %22, ptr %5, align 8, !tbaa !16
  store i8 %21, ptr %19, align 1, !tbaa !33
  %23 = load ptr, ptr %5, align 8, !tbaa !16
  %24 = load ptr, ptr %9, align 8, !tbaa !19
  %.not.i9 = icmp ult ptr %23, %24
  br i1 %.not.i9, label %avio_w8.exit10, label %25

25:                                               ; preds = %avio_w8.exit8
  tail call fastcc void @flush_buffer(ptr noundef nonnull %0)
  %.pre14 = load ptr, ptr %5, align 8, !tbaa !16
  br label %avio_w8.exit10

avio_w8.exit10:                                   ; preds = %avio_w8.exit8, %25
  %26 = phi ptr [ %23, %avio_w8.exit8 ], [ %.pre14, %25 ]
  %27 = trunc i32 %1 to i8
  %28 = getelementptr inbounds nuw i8, ptr %26, i64 1
  store ptr %28, ptr %5, align 8, !tbaa !16
  store i8 %27, ptr %26, align 1, !tbaa !33
  %29 = load ptr, ptr %5, align 8, !tbaa !16
  %30 = load ptr, ptr %9, align 8, !tbaa !19
  %.not.i11 = icmp ult ptr %29, %30
  br i1 %.not.i11, label %avio_w8.exit12, label %31

31:                                               ; preds = %avio_w8.exit10
  tail call fastcc void @flush_buffer(ptr noundef nonnull %0)
  br label %avio_w8.exit12

avio_w8.exit12:                                   ; preds = %avio_w8.exit10, %31
  ret void
}